target datalayout = "e-m:e-p270:32:32-p271:32:32-p272:64:64-i64:64-i128:128-f80:128-n8:16:32:64-S128"
target triple = "x86_64-pc-linux-gnu"

%struct.PlannerInfo = type { i32, ptr, ptr, i32, ptr, ptr, ptr, ptr, i32, ptr, ptr, ptr, ptr, ptr, ptr, ptr, ptr, i32, ptr, ptr, ptr, ptr, ptr, i8, ptr, ptr, ptr, ptr, ptr, i32, ptr, ptr, ptr, ptr, ptr, ptr, ptr, i32, ptr, ptr, ptr, i32, ptr, ptr, ptr, ptr, ptr, ptr, [8 x ptr], [8 x ptr], ptr, ptr, ptr, ptr, ptr, ptr, ptr, double, double, double, i32, i8, i8, i8, i8, i8, i8, i8, i32, ptr, ptr, i32, i8, i8, i32, ptr, ptr, ptr, ptr, ptr, ptr, i8, ptr }

; Function Attrs: nounwind uwtable
define dso_local void @expand_planner_arrays(ptr noundef %0, i32 noundef %1) #0 {
  %3 = alloca ptr, align 8
  %4 = alloca i32, align 4
  %5 = alloca i32, align 4
  store ptr %0, ptr %3, align 8
  store i32 %1, ptr %4, align 4
  call void @llvm.lifetime.start.p0(i64 4, ptr %5) #6
  %6 = load ptr, ptr %3, align 8
  %7 = getelementptr inbounds nuw %struct.PlannerInfo, ptr %6, i32 0, i32 8
  %8 = load i32, ptr %7, align 8
  %9 = load i32, ptr %4, align 4
  %10 = add i32 %8, %9
  store i32 %10, ptr %5, align 4
  %11 = load ptr, ptr %3, align 8
  %12 = getelementptr inbounds nuw %struct.PlannerInfo, ptr %11, i32 0, i32 7
  %13 = load ptr, ptr %12, align 8
  %14 = load ptr, ptr %3, align 8
  %15 = getelementptr inbounds nuw %struct.PlannerInfo, ptr %14, i32 0, i32 8
  %16 = load i32, ptr %15, align 8
  %17 = sext i32 %16 to i64
  %18 = mul i64 8, %17
  %19 = load i32, ptr %5, align 4
  %20 = sext i32 %19 to i64
  %21 = mul i64 8, %20
  %22 = call ptr @repalloc0(ptr noundef %13, i64 noundef %18, i64 noundef %21)
  %23 = load ptr, ptr %3, align 8
  %24 = getelementptr inbounds nuw %struct.PlannerInfo, ptr %23, i32 0, i32 7
  store ptr %22, ptr %24, align 8
  %25 = load ptr, ptr %3, align 8
  %26 = getelementptr inbounds nuw %struct.PlannerInfo, ptr %25, i32 0, i32 9
  %27 = load ptr, ptr %26, align 8
  %28 = load ptr, ptr %3, align 8
  %29 = getelementptr inbounds nuw %struct.PlannerInfo, ptr %28, i32 0, i32 8
  %30 = load i32, ptr %29, align 8
  %31 = sext i32 %30 to i64
  %32 = mul i64 8, %31
  %33 = load i32, ptr %5, align 4
  %34 = sext i32 %33 to i64
  %35 = mul i64 8, %34
  %36 = call ptr @repalloc0(ptr noundef %27, i64 noundef %32, i64 noundef %35)
  %37 = load ptr, ptr %3, align 8
  %38 = getelementptr inbounds nuw %struct.PlannerInfo, ptr %37, i32 0, i32 9
  store ptr %36, ptr %38, align 8
  %39 = load ptr, ptr %3, align 8
  %40 = getelementptr inbounds nuw %struct.PlannerInfo, ptr %39, i32 0, i32 10
  %41 = load ptr, ptr %40, align 8
  %42 = icmp ne ptr %41, null
  br i1 %42, label %43, label %58

43:                                               ; preds = %2
  %44 = load ptr, ptr %3, align 8
  %45 = getelementptr inbounds nuw %struct.PlannerInfo, ptr %44, i32 0, i32 10
  %46 = load ptr, ptr %45, align 8
  %47 = load ptr, ptr %3, align 8
  %48 = getelementptr inbounds nuw %struct.PlannerInfo, ptr %47, i32 0, i32 8
  %49 = load i32, ptr %48, align 8
  %50 = sext i32 %49 to i64
  %51 = mul i64 8, %50
  %52 = load i32, ptr %5, align 4
  %53 = sext i32 %52 to i64
  %54 = mul i64 8, %53
  %55 = call ptr @repalloc0(ptr noundef %46, i64 noundef %51, i64 noundef %54)
  %56 = load ptr, ptr %3, align 8
  %57 = getelementptr inbounds nuw %struct.PlannerInfo, ptr %56, i32 0, i32 10
  store ptr %55, ptr %57, align 8
  br label %65

58:                                               ; preds = %2
  %59 = load i32, ptr %5, align 4
  %60 = sext i32 %59 to i64
  %61 = mul i64 8, %60
  %62 = call ptr @palloc0(i64 noundef %61)
  %63 = load ptr, ptr %3, align 8
  %64 = getelementptr inbounds nuw %struct.PlannerInfo, ptr %63, i32 0, i32 10
  store ptr %62, ptr %64, align 8
  br label %65

65:                                               ; preds = %58, %43
  %66 = load i32, ptr %5, align 4
  %67 = load ptr, ptr %3, align 8
  %68 = getelementptr inbounds nuw %struct.PlannerInfo, ptr %67, i32 0, i32 8
  store i32 %66, ptr %68, align 8
  call void @llvm.lifetime.end.p0(i64 4, ptr %5) #6
  ret void
}