; Function Attrs: nounwind uwtable
define dso_local void @expand_planner_arrays(ptr noundef captures(none) %0, i32 noundef %1) local_unnamed_addr #0 {
  %3 = getelementptr inbounds nuw i8, ptr %0, i64 64
  %4 = load i32, ptr %3, align 8
  %5 = add i32 %4, %1
  %6 = getelementptr inbounds nuw i8, ptr %0, i64 56
  %7 = load ptr, ptr %6, align 8
  %8 = sext i32 %4 to i64
  %9 = shl nsw i64 %8, 3
  %10 = sext i32 %5 to i64
  %11 = shl nsw i64 %10, 3
  %12 = tail call ptr @repalloc0(ptr noundef %7, i64 noundef %9, i64 noundef %11) #7
  store ptr %12, ptr %6, align 8
  %13 = getelementptr inbounds nuw i8, ptr %0, i64 72
  %14 = load ptr, ptr %13, align 8
  %15 = load i32, ptr %3, align 8
  %16 = sext i32 %15 to i64
  %17 = shl nsw i64 %16, 3
  %18 = tail call ptr @repalloc0(ptr noundef %14, i64 noundef %17, i64 noundef %11) #7
  store ptr %18, ptr %13, align 8
  %19 = getelementptr inbounds nuw i8, ptr %0, i64 80
  %20 = load ptr, ptr %19, align 8
  %.not = icmp eq ptr %20, null
  br i1 %.not, label %26, label %21

21:                                               ; preds = %2
  %22 = load i32, ptr %3, align 8
  %23 = sext i32 %22 to i64
  %24 = shl nsw i64 %23, 3
  %25 = tail call ptr @repalloc0(ptr noundef nonnull %20, i64 noundef %24, i64 noundef %11) #7
  br label %28

26:                                               ; preds = %2
  %27 = tail call ptr @palloc0(i64 noundef %11) #7
  br label %28

28:                                               ; preds = %26, %21
  %storemerge = phi ptr [ %27, %26 ], [ %25, %21 ]
  store ptr %storemerge, ptr %19, align 8
  store i32 %5, ptr %3, align 8
  ret void
}